target datalayout = "e-m:e-p270:32:32-p271:32:32-p272:64:64-i64:64-i128:128-f80:128-n8:16:32:64-S128"
target triple = "x86_64-pc-linux-gnu"

%struct.GetBitContext = type { ptr, ptr, i32, i32, i32 }

@ff_log2_tab = external constant [256 x i8], align 16
@ff_golomb_vlc_len = external constant [512 x i8], align 16
@ff_se_golomb_vlc_code = external constant [512 x i8], align 16

; Function Attrs: alwaysinline nounwind willreturn memory(none) uwtable
define internal i32 @ff_log2_c(i32 noundef %0) #7 {
  %2 = alloca i32, align 4
  %3 = alloca i32, align 4
  store i32 %0, ptr %2, align 4, !tbaa !79
  call void @llvm.lifetime.start.p0(i64 4, ptr %3) #10
  store i32 0, ptr %3, align 4, !tbaa !79
  %4 = load i32, ptr %2, align 4, !tbaa !79
  %5 = and i32 %4, -65536
  %6 = icmp ne i32 %5, 0
  br i1 %6, label %7, label %12

7:                                                ; preds = %1
  %8 = load i32, ptr %2, align 4, !tbaa !79
  %9 = lshr i32 %8, 16
  store i32 %9, ptr %2, align 4, !tbaa !79
  %10 = load i32, ptr %3, align 4, !tbaa !79
  %11 = add nsw i32 %10, 16
  store i32 %11, ptr %3, align 4, !tbaa !79
  br label %12

12:                                               ; preds = %7, %1
  %13 = load i32, ptr %2, align 4, !tbaa !79
  %14 = and i32 %13, 65280
  %15 = icmp ne i32 %14, 0
  br i1 %15, label %16, label %21

16:                                               ; preds = %12
  %17 = load i32, ptr %2, align 4, !tbaa !79
  %18 = lshr i32 %17, 8
  store i32 %18, ptr %2, align 4, !tbaa !79
  %19 = load i32, ptr %3, align 4, !tbaa !79
  %20 = add nsw i32 %19, 8
  store i32 %20, ptr %3, align 4, !tbaa !79
  br label %21

21:                                               ; preds = %16, %12
  %22 = load i32, ptr %2, align 4, !tbaa !79
  %23 = zext i32 %22 to i64
  %24 = getelementptr inbounds nuw [256 x i8], ptr @ff_log2_tab, i64 0, i64 %23
  %25 = load i8, ptr %24, align 1, !tbaa !186
  %26 = zext i8 %25 to i32
  %27 = load i32, ptr %3, align 4, !tbaa !79
  %28 = add nsw i32 %27, %26
  store i32 %28, ptr %3, align 4, !tbaa !79
  %29 = load i32, ptr %3, align 4, !tbaa !79
  call void @llvm.lifetime.end.p0(i64 4, ptr %3) #10
  ret i32 %29
}

; Function Attrs: alwaysinline nounwind willreturn memory(none) uwtable
define internal i32 @av_bswap32(i32 noundef %0) #7 {
  %2 = alloca i32, align 4
  store i32 %0, ptr %2, align 4, !tbaa !79
  %3 = load i32, ptr %2, align 4, !tbaa !79
  %4 = shl i32 %3, 8
  %5 = and i32 %4, 65280
  %6 = load i32, ptr %2, align 4, !tbaa !79
  %7 = lshr i32 %6, 8
  %8 = and i32 %7, 255
  %9 = or i32 %5, %8
  %10 = shl i32 %9, 16
  %11 = load i32, ptr %2, align 4, !tbaa !79
  %12 = lshr i32 %11, 16
  %13 = shl i32 %12, 8
  %14 = and i32 %13, 65280
  %15 = load i32, ptr %2, align 4, !tbaa !79
  %16 = lshr i32 %15, 16
  %17 = lshr i32 %16, 8
  %18 = and i32 %17, 255
  %19 = or i32 %14, %18
  %20 = or i32 %10, %19
  ret i32 %20
}

; Function Attrs: inlinehint nounwind uwtable
define internal i32 @get_se_golomb(ptr noundef %0) #5 {
  %2 = alloca i32, align 4
  %3 = alloca ptr, align 8
  %4 = alloca i32, align 4
  %5 = alloca i32, align 4
  %6 = alloca i32, align 4
  %7 = alloca i32, align 4
  %8 = alloca i32, align 4
  %9 = alloca i32, align 4
  %10 = alloca i32, align 4
  store ptr %0, ptr %3, align 8, !tbaa !313
  call void @llvm.lifetime.start.p0(i64 4, ptr %4) #10
  call void @llvm.lifetime.start.p0(i64 4, ptr %5) #10
  %11 = load ptr, ptr %3, align 8, !tbaa !313
  %12 = getelementptr inbounds nuw %struct.GetBitContext, ptr %11, i32 0, i32 2
  %13 = load i32, ptr %12, align 8, !tbaa !315
  store i32 %13, ptr %5, align 4, !tbaa !79
  call void @llvm.lifetime.start.p0(i64 4, ptr %6) #10
  call void @llvm.lifetime.start.p0(i64 4, ptr %7) #10
  %14 = load ptr, ptr %3, align 8, !tbaa !313
  %15 = getelementptr inbounds nuw %struct.GetBitContext, ptr %14, i32 0, i32 4
  %16 = load i32, ptr %15, align 8, !tbaa !316
  store i32 %16, ptr %7, align 4, !tbaa !79
  %17 = load ptr, ptr %3, align 8, !tbaa !313
  %18 = getelementptr inbounds nuw %struct.GetBitContext, ptr %17, i32 0, i32 0
  %19 = load ptr, ptr %18, align 8, !tbaa !317
  %20 = load i32, ptr %5, align 4, !tbaa !79
  %21 = lshr i32 %20, 3
  %22 = zext i32 %21 to i64
  %23 = getelementptr inbounds nuw i8, ptr %19, i64 %22
  %24 = load i32, ptr %23, align 1, !tbaa !186
  %25 = call i32 @av_bswap32(i32 noundef %24) #12
  %26 = load i32, ptr %5, align 4, !tbaa !79
  %27 = and i32 %26, 7
  %28 = shl i32 %25, %27
  %29 = lshr i32 %28, 0
  store i32 %29, ptr %6, align 4, !tbaa !79
  %30 = load i32, ptr %6, align 4, !tbaa !79
  store i32 %30, ptr %4, align 4, !tbaa !79
  %31 = load i32, ptr %4, align 4, !tbaa !79
  %32 = icmp uge i32 %31, 134217728
  br i1 %32, label %33, label %65

33:                                               ; preds = %1
  %34 = load i32, ptr %4, align 4, !tbaa !79
  %35 = lshr i32 %34, 23
  store i32 %35, ptr %4, align 4, !tbaa !79
  %36 = load i32, ptr %7, align 4, !tbaa !79
  %37 = load i32, ptr %5, align 4, !tbaa !79
  %38 = load i32, ptr %4, align 4, !tbaa !79
  %39 = zext i32 %38 to i64
  %40 = getelementptr inbounds nuw [512 x i8], ptr @ff_golomb_vlc_len, i64 0, i64 %39
  %41 = load i8, ptr %40, align 1, !tbaa !186
  %42 = zext i8 %41 to i32
  %43 = add i32 %37, %42
  %44 = icmp ugt i32 %36, %43
  br i1 %44, label %45, label %53

45:                                               ; preds = %33
  %46 = load i32, ptr %5, align 4, !tbaa !79
  %47 = load i32, ptr %4, align 4, !tbaa !79
  %48 = zext i32 %47 to i64
  %49 = getelementptr inbounds nuw [512 x i8], ptr @ff_golomb_vlc_len, i64 0, i64 %48
  %50 = load i8, ptr %49, align 1, !tbaa !186
  %51 = zext i8 %50 to i32
  %52 = add i32 %46, %51
  br label %55

53:                                               ; preds = %33
  %54 = load i32, ptr %7, align 4, !tbaa !79
  br label %55

55:                                               ; preds = %53, %45
  %56 = phi i32 [ %52, %45 ], [ %54, %53 ]
  store i32 %56, ptr %5, align 4, !tbaa !79
  %57 = load i32, ptr %5, align 4, !tbaa !79
  %58 = load ptr, ptr %3, align 8, !tbaa !313
  %59 = getelementptr inbounds nuw %struct.GetBitContext, ptr %58, i32 0, i32 2
  store i32 %57, ptr %59, align 8, !tbaa !315
  %60 = load i32, ptr %4, align 4, !tbaa !79
  %61 = zext i32 %60 to i64
  %62 = getelementptr inbounds nuw [512 x i8], ptr @ff_se_golomb_vlc_code, i64 0, i64 %61
  %63 = load i8, ptr %62, align 1, !tbaa !186
  %64 = sext i8 %63 to i32
  store i32 %64, ptr %2, align 4
  store i32 1, ptr %8, align 4
  br label %128

65:                                               ; preds = %1
  call void @llvm.lifetime.start.p0(i64 4, ptr %9) #10
  %66 = load i32, ptr %4, align 4, !tbaa !79
  %67 = call i32 @ff_log2_c(i32 noundef %66) #12
  store i32 %67, ptr %9, align 4, !tbaa !79
  call void @llvm.lifetime.start.p0(i64 4, ptr %10) #10
  %68 = load i32, ptr %7, align 4, !tbaa !79
  %69 = load i32, ptr %5, align 4, !tbaa !79
  %70 = load i32, ptr %9, align 4, !tbaa !79
  %71 = sub nsw i32 31, %70
  %72 = add i32 %69, %71
  %73 = icmp ugt i32 %68, %72
  br i1 %73, label %74, label %79

74:                                               ; preds = %65
  %75 = load i32, ptr %5, align 4, !tbaa !79
  %76 = load i32, ptr %9, align 4, !tbaa !79
  %77 = sub nsw i32 31, %76
  %78 = add i32 %75, %77
  br label %81

79:                                               ; preds = %65
  %80 = load i32, ptr %7, align 4, !tbaa !79
  br label %81

81:                                               ; preds = %79, %74
  %82 = phi i32 [ %78, %74 ], [ %80, %79 ]
  store i32 %82, ptr %5, align 4, !tbaa !79
  %83 = load ptr, ptr %3, align 8, !tbaa !313
  %84 = getelementptr inbounds nuw %struct.GetBitContext, ptr %83, i32 0, i32 0
  %85 = load ptr, ptr %84, align 8, !tbaa !317
  %86 = load i32, ptr %5, align 4, !tbaa !79
  %87 = lshr i32 %86, 3
  %88 = zext i32 %87 to i64
  %89 = getelementptr inbounds nuw i8, ptr %85, i64 %88
  %90 = load i32, ptr %89, align 1, !tbaa !186
  %91 = call i32 @av_bswap32(i32 noundef %90) #12
  %92 = load i32, ptr %5, align 4, !tbaa !79
  %93 = and i32 %92, 7
  %94 = shl i32 %91, %93
  %95 = lshr i32 %94, 0
  store i32 %95, ptr %6, align 4, !tbaa !79
  %96 = load i32, ptr %6, align 4, !tbaa !79
  store i32 %96, ptr %4, align 4, !tbaa !79
  %97 = load i32, ptr %9, align 4, !tbaa !79
  %98 = load i32, ptr %4, align 4, !tbaa !79
  %99 = lshr i32 %98, %97
  store i32 %99, ptr %4, align 4, !tbaa !79
  %100 = load i32, ptr %7, align 4, !tbaa !79
  %101 = load i32, ptr %5, align 4, !tbaa !79
  %102 = load i32, ptr %9, align 4, !tbaa !79
  %103 = sub nsw i32 32, %102
  %104 = add i32 %101, %103
  %105 = icmp ugt i32 %100, %104
  br i1 %105, label %106, label %111

106:                                              ; preds = %81
  %107 = load i32, ptr %5, align 4, !tbaa !79
  %108 = load i32, ptr %9, align 4, !tbaa !79
  %109 = sub nsw i32 32, %108
  %110 = add i32 %107, %109
  br label %113

111:                                              ; preds = %81
  %112 = load i32, ptr %7, align 4, !tbaa !79
  br label %113

113:                                              ; preds = %111, %106
  %114 = phi i32 [ %110, %106 ], [ %112, %111 ]
  store i32 %114, ptr %5, align 4, !tbaa !79
  %115 = load i32, ptr %5, align 4, !tbaa !79
  %116 = load ptr, ptr %3, align 8, !tbaa !313
  %117 = getelementptr inbounds nuw %struct.GetBitContext, ptr %116, i32 0, i32 2
  store i32 %115, ptr %117, align 8, !tbaa !315
  %118 = load i32, ptr %4, align 4, !tbaa !79
  %119 = and i32 %118, 1
  %120 = sub i32 0, %119
  store i32 %120, ptr %10, align 4, !tbaa !79
  %121 = load i32, ptr %4, align 4, !tbaa !79
  %122 = lshr i32 %121, 1
  %123 = load i32, ptr %10, align 4, !tbaa !79
  %124 = xor i32 %122, %123
  %125 = load i32, ptr %10, align 4, !tbaa !79
  %126 = sub i32 %124, %125
  store i32 %126, ptr %4, align 4, !tbaa !79
  %127 = load i32, ptr %4, align 4, !tbaa !79
  store i32 %127, ptr %2, align 4
  store i32 1, ptr %8, align 4
  call void @llvm.lifetime.end.p0(i64 4, ptr %10) #10
  call void @llvm.lifetime.end.p0(i64 4, ptr %9) #10
  br label %128

128:                                              ; preds = %113, %55
  call void @llvm.lifetime.end.p0(i64 4, ptr %7) #10
  call void @llvm.lifetime.end.p0(i64 4, ptr %6) #10
  call void @llvm.lifetime.end.p0(i64 4, ptr %5) #10
  call void @llvm.lifetime.end.p0(i64 4, ptr %4) #10
  %129 = load i32, ptr %2, align 4
  ret i32 %129
}